; Function Attrs: mustprogress nofree norecurse nosync nounwind willreturn memory(argmem: readwrite) uwtable
define { <2 x float>, <2 x float> } @_ZNK32pxrInternal_v0_24__pxrReserved__10GfMatrix2f10GetInverseEPdd(ptr noundef nonnull readonly align 4 captures(none) dereferenceable(16) %0, ptr noundef writeonly %1, double noundef %2) local_unnamed_addr #2 align 2 {
  %4 = load float, ptr %0, align 4
  %5 = getelementptr inbounds nuw i8, ptr %0, i64 8
  %6 = getelementptr inbounds nuw i8, ptr %0, i64 12
  %7 = load float, ptr %6, align 4
  %8 = getelementptr inbounds nuw i8, ptr %0, i64 4
  %9 = load float, ptr %8, align 4
  %10 = load float, ptr %5, align 4
  %11 = fneg float %10
  %12 = fmul float %9, %11
  %13 = tail call float @llvm.fmuladd.f32(float %4, float %7, float %12)
  %14 = fpext float %13 to double
  %.not = icmp eq ptr %1, null
  br i1 %.not, label %16, label %15

15:                                               ; preds = %3
  store double %14, ptr %1, align 8
  br label %16

16:                                               ; preds = %15, %3
  %17 = tail call noundef double @llvm.fabs.f64(double %14)
  %18 = fcmp ogt double %17, %2
  br i1 %18, label %19, label %38

19:                                               ; preds = %16
  %20 = fdiv double 1.000000e+00, %14
  %21 = load float, ptr %6, align 4
  %22 = fpext float %21 to double
  %23 = fmul double %20, %22
  %24 = fptrunc double %23 to float
  %.sroa.0.0.vec.insert = insertelement <2 x float> poison, float %24, i64 0
  %25 = load float, ptr %8, align 4
  %26 = fpext float %25 to double
  %27 = fneg double %20
  %28 = fmul double %27, %26
  %29 = fptrunc double %28 to float
  %.sroa.0.4.vec.insert = insertelement <2 x float> %.sroa.0.0.vec.insert, float %29, i64 1
  %30 = load float, ptr %5, align 4
  %31 = fpext float %30 to double
  %32 = fmul double %27, %31
  %33 = fptrunc double %32 to float
  %.sroa.5.8.vec.insert = insertelement <2 x float> poison, float %33, i64 0
  %34 = load float, ptr %0, align 4
  %35 = fpext float %34 to double
  %36 = fmul double %20, %35
  %37 = fptrunc double %36 to float
  %.sroa.5.12.vec.insert = insertelement <2 x float> %.sroa.5.8.vec.insert, float %37, i64 1
  br label %38

38:                                               ; preds = %16, %19
  %.sroa.5.0 = phi <2 x float> [ %.sroa.5.12.vec.insert, %19 ], [ <float 0.000000e+00, float 0x47EFFFFFE0000000>, %16 ]
  %.sroa.0.0 = phi <2 x float> [ %.sroa.0.4.vec.insert, %19 ], [ <float 0x47EFFFFFE0000000, float 0.000000e+00>, %16 ]
  %.fca.0.insert = insertvalue { <2 x float>, <2 x float> } poison, <2 x float> %.sroa.0.0, 0
  %.fca.1.insert = insertvalue { <2 x float>, <2 x float> } %.fca.0.insert, <2 x float> %.sroa.5.0, 1
  ret { <2 x float>, <2 x float> } %.fca.1.insert
}